target datalayout = "e-m:e-p270:32:32-p271:32:32-p272:64:64-i64:64-i128:128-f80:128-n8:16:32:64-S128"
target triple = "x86_64-pc-linux-gnu"

%struct.sinfo_parameters = type { i8, ptr, i32, ptr, i32, i8, i8, i8, i8, i8, i8, i8, i8, i8, i8, i8, i8, i8, i8, i8, i8, i8, i64, ptr, ptr, ptr, ptr, ptr, ptr, ptr, i32, i32, i32, i32, ptr, ptr, ptr, i8, ptr }
%union.pthread_mutex_t = type { %struct.__pthread_mutex_s }
%struct.__pthread_mutex_s = type { i32, i32, i32, i32, i32, i16, i16, %struct.__pthread_internal_list }
%struct.__pthread_internal_list = type { ptr, ptr }
%struct.log_options_t = type { i32, i32, i32, i8, i8, i8, i32 }
%struct.slurmdb_cluster_rec = type { ptr, i16, i64, %struct.sockaddr_storage, ptr, i32, i16, ptr, i16, %struct.slurmdb_cluster_fed_t, i32, %union.pthread_mutex_t, ptr, ptr, ptr, i16, ptr, ptr }
%struct.sockaddr_storage = type { i16, [118 x i8], i64 }
%struct.slurmdb_cluster_fed_t = type { ptr, i32, ptr, ptr, ptr, i32, i8, i8 }

@__const.main.opts = private unnamed_addr constant { i32, i32, i32, i8, i8, i8, i8, i32 } { i32 3, i32 0, i32 0, i8 1, i8 0, i8 0, i8 0, i32 0 }, align 4
@params = dso_local global %struct.sinfo_parameters zeroinitializer, align 8
@.str = private unnamed_addr constant [2 x i8] c"\0A\00", align 1
@working_cluster_rec = external global ptr, align 8
@.str.6 = private unnamed_addr constant [13 x i8] c"CLUSTER: %s\0A\00", align 1

; Function Attrs: nounwind uwtable
define internal void @prepend_cluster_name() #0 {
  %1 = load ptr, ptr getelementptr inbounds nuw (%struct.sinfo_parameters, ptr @params, i32 0, i32 35), align 8
  %2 = call ptr @list_find_first(ptr noundef %1, ptr noundef @_list_find_func, ptr noundef @_print_cluster_name)
  %3 = icmp ne ptr %2, null
  br i1 %3, label %4, label %5

4:                                                ; preds = %0
  br label %8

5:                                                ; preds = %0
  %6 = load ptr, ptr getelementptr inbounds nuw (%struct.sinfo_parameters, ptr @params, i32 0, i32 35), align 8
  %7 = call i32 @format_prepend_function(ptr noundef %6, i32 noundef 8, i1 noundef zeroext false, ptr noundef null, ptr noundef @_print_cluster_name)
  br label %8

8:                                                ; preds = %5, %4
  ret void
}

; Function Attrs: nounwind uwtable
define internal i32 @_multi_cluster(ptr noundef %0, i32 noundef %1, ptr noundef %2) #0 {
  %4 = alloca ptr, align 8
  %5 = alloca i32, align 4
  %6 = alloca ptr, align 8
  %7 = alloca ptr, align 8
  %8 = alloca i8, align 1
  %9 = alloca i32, align 4
  %10 = alloca i32, align 4
  store ptr %0, ptr %4, align 8
  store i32 %1, ptr %5, align 4
  store ptr %2, ptr %6, align 8
  call void @llvm.lifetime.start.p0(i64 8, ptr %7) #9
  call void @llvm.lifetime.start.p0(i64 1, ptr %8) #9
  store i8 1, ptr %8, align 1
  call void @llvm.lifetime.start.p0(i64 4, ptr %9) #9
  store i32 0, ptr %9, align 4
  call void @llvm.lifetime.start.p0(i64 4, ptr %10) #9
  %11 = load ptr, ptr %4, align 8
  %12 = call i32 @list_count(ptr noundef %11)
  %13 = icmp sgt i32 %12, 1
  br i1 %13, label %14, label %21

14:                                               ; preds = %3
  %15 = load i8, ptr getelementptr inbounds nuw (%struct.sinfo_parameters, ptr @params, i32 0, i32 13), align 4, !range !8, !noundef !9
  %16 = trunc i8 %15 to i1
  br i1 %16, label %17, label %21

17:                                               ; preds = %14
  %18 = load i8, ptr getelementptr inbounds nuw (%struct.sinfo_parameters, ptr @params, i32 0, i32 6), align 1, !range !8, !noundef !9
  %19 = trunc i8 %18 to i1
  br i1 %19, label %20, label %21

20:                                               ; preds = %17
  call void @prepend_cluster_name()
  br label %21

21:                                               ; preds = %20, %17, %14, %3
  %22 = load ptr, ptr %4, align 8
  %23 = call ptr @list_iterator_create(ptr noundef %22)
  store ptr %23, ptr %7, align 8
  br label %24

24:                                               ; preds = %52, %21
  %25 = load ptr, ptr %7, align 8
  %26 = call ptr @list_next(ptr noundef %25)
  store ptr %26, ptr @working_cluster_rec, align 8
  %27 = icmp ne ptr %26, null
  br i1 %27, label %28, label %53

28:                                               ; preds = %24
  %29 = load i8, ptr getelementptr inbounds nuw (%struct.sinfo_parameters, ptr @params, i32 0, i32 13), align 4, !range !8, !noundef !9
  %30 = trunc i8 %29 to i1
  br i1 %30, label %42, label %31

31:                                               ; preds = %28
  %32 = load i8, ptr %8, align 1, !range !8, !noundef !9
  %33 = trunc i8 %32 to i1
  br i1 %33, label %34, label %35

34:                                               ; preds = %31
  store i8 0, ptr %8, align 1
  br label %37

35:                                               ; preds = %31
  %36 = call i32 (ptr, ...) @printf(ptr noundef @.str)
  br label %37

37:                                               ; preds = %35, %34
  %38 = load ptr, ptr @working_cluster_rec, align 8
  %39 = getelementptr inbounds nuw %struct.slurmdb_cluster_rec, ptr %38, i32 0, i32 12
  %40 = load ptr, ptr %39, align 8
  %41 = call i32 (ptr, ...) @printf(ptr noundef @.str.6, ptr noundef %40)
  br label %42

42:                                               ; preds = %37, %28
  %43 = load ptr, ptr @working_cluster_rec, align 8
  %44 = getelementptr inbounds nuw %struct.slurmdb_cluster_rec, ptr %43, i32 0, i32 12
  %45 = load ptr, ptr %44, align 8
  %46 = load i32, ptr %5, align 4
  %47 = load ptr, ptr %6, align 8
  %48 = call i32 @_get_info(i1 noundef zeroext true, ptr noundef null, ptr noundef %45, i32 noundef %46, ptr noundef %47)
  store i32 %48, ptr %10, align 4
  %49 = load i32, ptr %10, align 4
  %50 = icmp ne i32 %49, 0
  br i1 %50, label %51, label %52

51:                                               ; preds = %42
  store i32 1, ptr %9, align 4
  br label %52

52:                                               ; preds = %51, %42
  br label %24, !llvm.loop !12

53:                                               ; preds = %24
  %54 = load ptr, ptr %7, align 8
  call void @list_iterator_destroy(ptr noundef %54)
  %55 = load i32, ptr %9, align 4
  call void @llvm.lifetime.end.p0(i64 4, ptr %10) #9
  call void @llvm.lifetime.end.p0(i64 4, ptr %9) #9
  call void @llvm.lifetime.end.p0(i64 1, ptr %8) #9
  call void @llvm.lifetime.end.p0(i64 8, ptr %7) #9
  ret i32 %55
}

; Function Attrs: nounwind uwtable
define dso_local i32 @main(i32 noundef %0, ptr noundef %1) #0 {
  %3 = alloca i32, align 4
  %4 = alloca i32, align 4
  %5 = alloca ptr, align 8
  %6 = alloca %struct.log_options_t, align 8
  %7 = alloca i32, align 4
  store i32 0, ptr %3, align 4
  store i32 %0, ptr %4, align 4
  store ptr %1, ptr %5, align 8
  call void @llvm.lifetime.start.p0(i64 20, ptr %6) #9
  call void @llvm.memcpy.p0.p0.i64(ptr align 4 %6, ptr align 4 @__const.main.opts, i64 20, i1 false)
  call void @llvm.lifetime.start.p0(i64 4, ptr %7) #9
  store i32 0, ptr %7, align 4
  call void @slurm_init(ptr noundef null)
  %8 = load ptr, ptr %5, align 8
  %9 = getelementptr inbounds ptr, ptr %8, i64 0
  %10 = load ptr, ptr %9, align 8
  %11 = call ptr @xbasename(ptr noundef %10)
  %12 = call i32 @log_init(ptr noundef %11, ptr noundef byval(%struct.log_options_t) align 8 %6, i32 noundef 8, ptr noundef null)
  call void @llvm.memset.p0.i64(ptr align 8 @params, i8 0, i64 176, i1 false)
  %13 = call ptr @list_create(ptr noundef @_free_sinfo_format)
  store ptr %13, ptr getelementptr inbounds nuw (%struct.sinfo_parameters, ptr @params, i32 0, i32 35), align 8
  %14 = load i32, ptr %4, align 4
  %15 = load ptr, ptr %5, align 8
  call void @parse_command_line(i32 noundef %14, ptr noundef %15)
  %16 = load i32, ptr getelementptr inbounds nuw (%struct.sinfo_parameters, ptr @params, i32 0, i32 33), align 4
  %17 = icmp ne i32 %16, 0
  br i1 %17, label %18, label %24

18:                                               ; preds = %2
  %19 = load i32, ptr getelementptr inbounds nuw (%struct.sinfo_parameters, ptr @params, i32 0, i32 33), align 4
  %20 = getelementptr inbounds nuw %struct.log_options_t, ptr %6, i32 0, i32 0
  %21 = load i32, ptr %20, align 4
  %22 = add i32 %21, %19
  store i32 %22, ptr %20, align 4
  %23 = call i32 @log_alter(ptr noundef byval(%struct.log_options_t) align 8 %6, i32 noundef 8, ptr noundef null)
  br label %24

24:                                               ; preds = %18, %2
  br label %25

25:                                               ; preds = %69, %24
  br label %26

26:                                               ; preds = %25
  %27 = load i8, ptr getelementptr inbounds nuw (%struct.sinfo_parameters, ptr @params, i32 0, i32 13), align 4, !range !8, !noundef !9
  %28 = trunc i8 %27 to i1
  br i1 %28, label %42, label %29

29:                                               ; preds = %26
  %30 = load ptr, ptr getelementptr inbounds nuw (%struct.sinfo_parameters, ptr @params, i32 0, i32 24), align 8
  %31 = icmp ne ptr %30, null
  br i1 %31, label %42, label %32

32:                                               ; preds = %29
  %33 = load i32, ptr getelementptr inbounds nuw (%struct.sinfo_parameters, ptr @params, i32 0, i32 30), align 8
  %34 = icmp ne i32 %33, 0
  br i1 %34, label %41, label %35

35:                                               ; preds = %32
  %36 = load i32, ptr getelementptr inbounds nuw (%struct.sinfo_parameters, ptr @params, i32 0, i32 33), align 4
  %37 = icmp ne i32 %36, 0
  br i1 %37, label %41, label %38

38:                                               ; preds = %35
  %39 = load i8, ptr getelementptr inbounds nuw (%struct.sinfo_parameters, ptr @params, i32 0, i32 12), align 1, !range !8, !noundef !9
  %40 = trunc i8 %39 to i1
  br i1 %40, label %41, label %42

41:                                               ; preds = %38, %35, %32
  call void @print_date()
  br label %42

42:                                               ; preds = %41, %38, %29, %26
  %43 = load ptr, ptr getelementptr inbounds nuw (%struct.sinfo_parameters, ptr @params, i32 0, i32 1), align 8
  %44 = icmp ne ptr %43, null
  br i1 %44, label %53, label %45

45:                                               ; preds = %42
  %46 = load ptr, ptr getelementptr inbounds nuw (%struct.sinfo_parameters, ptr @params, i32 0, i32 38), align 8
  %47 = load i32, ptr %4, align 4
  %48 = load ptr, ptr %5, align 8
  %49 = call i32 @_get_info(i1 noundef zeroext false, ptr noundef %46, ptr noundef null, i32 noundef %47, ptr noundef %48)
  %50 = icmp ne i32 %49, 0
  br i1 %50, label %51, label %52

51:                                               ; preds = %45
  store i32 1, ptr %7, align 4
  br label %52

52:                                               ; preds = %51, %45
  br label %61

53:                                               ; preds = %42
  %54 = load ptr, ptr getelementptr inbounds nuw (%struct.sinfo_parameters, ptr @params, i32 0, i32 1), align 8
  %55 = load i32, ptr %4, align 4
  %56 = load ptr, ptr %5, align 8
  %57 = call i32 @_multi_cluster(ptr noundef %54, i32 noundef %55, ptr noundef %56)
  %58 = icmp ne i32 %57, 0
  br i1 %58, label %59, label %60

59:                                               ; preds = %53
  store i32 1, ptr %7, align 4
  br label %60

60:                                               ; preds = %59, %53
  br label %61

61:                                               ; preds = %60, %52
  %62 = load i32, ptr getelementptr inbounds nuw (%struct.sinfo_parameters, ptr @params, i32 0, i32 30), align 8
  %63 = icmp ne i32 %62, 0
  br i1 %63, label %64, label %68

64:                                               ; preds = %61
  %65 = call i32 (ptr, ...) @printf(ptr noundef @.str)
  %66 = load i32, ptr getelementptr inbounds nuw (%struct.sinfo_parameters, ptr @params, i32 0, i32 30), align 8
  %67 = call i32 @sleep(i32 noundef %66)
  br label %69

68:                                               ; preds = %61
  br label %70

69:                                               ; preds = %64
  br label %25, !llvm.loop !10

70:                                               ; preds = %68
  call void @_free_params()
  %71 = load i32, ptr %7, align 4
  call void @exit(i32 noundef %71) #10
  unreachable
}